
notmain.elf:     file format elf32-littlearm


Disassembly of section .text:

08000000 <_start>:
 8000000:	20001000 	andcs	r1, r0, r0
 8000004:	08000041 	stmdaeq	r0, {r0, r6}
 8000008:	08000047 	stmdaeq	r0, {r0, r1, r2, r6}
 800000c:	08000047 	stmdaeq	r0, {r0, r1, r2, r6}
 8000010:	08000047 	stmdaeq	r0, {r0, r1, r2, r6}
 8000014:	08000047 	stmdaeq	r0, {r0, r1, r2, r6}
 8000018:	08000047 	stmdaeq	r0, {r0, r1, r2, r6}
 800001c:	08000047 	stmdaeq	r0, {r0, r1, r2, r6}
 8000020:	08000047 	stmdaeq	r0, {r0, r1, r2, r6}
 8000024:	08000047 	stmdaeq	r0, {r0, r1, r2, r6}
 8000028:	08000047 	stmdaeq	r0, {r0, r1, r2, r6}
 800002c:	08000047 	stmdaeq	r0, {r0, r1, r2, r6}
 8000030:	08000047 	stmdaeq	r0, {r0, r1, r2, r6}
 8000034:	08000047 	stmdaeq	r0, {r0, r1, r2, r6}
 8000038:	08000047 	stmdaeq	r0, {r0, r1, r2, r6}
 800003c:	08000047 	stmdaeq	r0, {r0, r1, r2, r6}

08000040 <reset>:
 8000040:	f000 f86e 	bl	8000120 <notmain>
 8000044:	e7ff      	b.n	8000046 <hang>

08000046 <hang>:
 8000046:	e7fe      	b.n	8000046 <hang>

08000048 <PUT16>:
 8000048:	8001      	strh	r1, [r0, #0]
 800004a:	4770      	bx	lr

0800004c <PUT32>:
 800004c:	6001      	str	r1, [r0, #0]
 800004e:	4770      	bx	lr

08000050 <GET16>:
 8000050:	8800      	ldrh	r0, [r0, #0]
 8000052:	4770      	bx	lr

08000054 <GET32>:
 8000054:	6800      	ldr	r0, [r0, #0]
 8000056:	4770      	bx	lr

08000058 <dummy>:
 8000058:	4770      	bx	lr

0800005a <ASMDELAY>:
 800005a:	3801      	subs	r0, #1
 800005c:	d1fd      	bne.n	800005a <ASMDELAY>
 800005e:	4770      	bx	lr

08000060 <i2c_stop>:
 8000060:	b510      	push	{r4, lr}
 8000062:	4c05      	ldr	r4, [pc, #20]	; (8000078 <i2c_stop+0x18>)
 8000064:	2101      	movs	r1, #1
 8000066:	0020      	movs	r0, r4
 8000068:	f7ff fff0 	bl	800004c <PUT32>
 800006c:	2102      	movs	r1, #2
 800006e:	0020      	movs	r0, r4
 8000070:	f7ff ffec 	bl	800004c <PUT32>
 8000074:	bd10      	pop	{r4, pc}
 8000076:	46c0      	nop			; (mov r8, r8)
 8000078:	48000018 	stmdami	r0, {r3, r4}

0800007c <i2c_start>:
 800007c:	2180      	movs	r1, #128	; 0x80
 800007e:	b510      	push	{r4, lr}
 8000080:	4c05      	ldr	r4, [pc, #20]	; (8000098 <i2c_start+0x1c>)
 8000082:	0289      	lsls	r1, r1, #10
 8000084:	0020      	movs	r0, r4
 8000086:	f7ff ffe1 	bl	800004c <PUT32>
 800008a:	2180      	movs	r1, #128	; 0x80
 800008c:	0020      	movs	r0, r4
 800008e:	0249      	lsls	r1, r1, #9
 8000090:	f7ff ffdc 	bl	800004c <PUT32>
 8000094:	bd10      	pop	{r4, pc}
 8000096:	46c0      	nop			; (mov r8, r8)
 8000098:	48000018 	stmdami	r0, {r3, r4}

0800009c <i2c_write_byte>:
 800009c:	b570      	push	{r4, r5, r6, lr}
 800009e:	0006      	movs	r6, r0
 80000a0:	2508      	movs	r5, #8
 80000a2:	2480      	movs	r4, #128	; 0x80
 80000a4:	e015      	b.n	80000d2 <i2c_write_byte+0x36>
 80000a6:	2102      	movs	r1, #2
 80000a8:	4813      	ldr	r0, [pc, #76]	; (80000f8 <i2c_write_byte+0x5c>)
 80000aa:	f7ff ffcf 	bl	800004c <PUT32>
 80000ae:	2101      	movs	r1, #1
 80000b0:	4811      	ldr	r0, [pc, #68]	; (80000f8 <i2c_write_byte+0x5c>)
 80000b2:	f7ff ffcb 	bl	800004c <PUT32>
 80000b6:	2180      	movs	r1, #128	; 0x80
 80000b8:	480f      	ldr	r0, [pc, #60]	; (80000f8 <i2c_write_byte+0x5c>)
 80000ba:	0249      	lsls	r1, r1, #9
 80000bc:	f7ff ffc6 	bl	800004c <PUT32>
 80000c0:	2180      	movs	r1, #128	; 0x80
 80000c2:	480d      	ldr	r0, [pc, #52]	; (80000f8 <i2c_write_byte+0x5c>)
 80000c4:	0289      	lsls	r1, r1, #10
 80000c6:	3d01      	subs	r5, #1
 80000c8:	f7ff ffc0 	bl	800004c <PUT32>
 80000cc:	0864      	lsrs	r4, r4, #1
 80000ce:	2d00      	cmp	r5, #0
 80000d0:	d007      	beq.n	80000e2 <i2c_write_byte+0x46>
 80000d2:	4234      	tst	r4, r6
 80000d4:	d1e7      	bne.n	80000a6 <i2c_write_byte+0xa>
 80000d6:	2180      	movs	r1, #128	; 0x80
 80000d8:	4807      	ldr	r0, [pc, #28]	; (80000f8 <i2c_write_byte+0x5c>)
 80000da:	0289      	lsls	r1, r1, #10
 80000dc:	f7ff ffb6 	bl	800004c <PUT32>
 80000e0:	e7e5      	b.n	80000ae <i2c_write_byte+0x12>
 80000e2:	2101      	movs	r1, #1
 80000e4:	4804      	ldr	r0, [pc, #16]	; (80000f8 <i2c_write_byte+0x5c>)
 80000e6:	f7ff ffb1 	bl	800004c <PUT32>
 80000ea:	2180      	movs	r1, #128	; 0x80
 80000ec:	4802      	ldr	r0, [pc, #8]	; (80000f8 <i2c_write_byte+0x5c>)
 80000ee:	0249      	lsls	r1, r1, #9
 80000f0:	f7ff ffac 	bl	800004c <PUT32>
 80000f4:	2000      	movs	r0, #0
 80000f6:	bd70      	pop	{r4, r5, r6, pc}
 80000f8:	48000018 	stmdami	r0, {r3, r4}

080000fc <send_command.constprop.0>:
 80000fc:	b510      	push	{r4, lr}
 80000fe:	0004      	movs	r4, r0
 8000100:	f7ff ffbc 	bl	800007c <i2c_start>
 8000104:	20e0      	movs	r0, #224	; 0xe0
 8000106:	f7ff ffc9 	bl	800009c <i2c_write_byte>
 800010a:	2800      	cmp	r0, #0
 800010c:	d105      	bne.n	800011a <send_command.constprop.0+0x1e>
 800010e:	0020      	movs	r0, r4
 8000110:	f7ff ffc4 	bl	800009c <i2c_write_byte>
 8000114:	2000      	movs	r0, #0
 8000116:	f7ff ffc1 	bl	800009c <i2c_write_byte>
 800011a:	f7ff ffa1 	bl	8000060 <i2c_stop>
 800011e:	bd10      	pop	{r4, pc}

08000120 <notmain>:
 8000120:	b5f0      	push	{r4, r5, r6, r7, lr}
 8000122:	46de      	mov	lr, fp
 8000124:	4657      	mov	r7, sl
 8000126:	464e      	mov	r6, r9
 8000128:	4645      	mov	r5, r8
 800012a:	b5e0      	push	{r5, r6, r7, lr}
 800012c:	4864      	ldr	r0, [pc, #400]	; (80002c0 <notmain+0x1a0>)
 800012e:	b08b      	sub	sp, #44	; 0x2c
 8000130:	f7ff ff90 	bl	8000054 <GET32>
 8000134:	2180      	movs	r1, #128	; 0x80
 8000136:	0289      	lsls	r1, r1, #10
 8000138:	4301      	orrs	r1, r0
 800013a:	4861      	ldr	r0, [pc, #388]	; (80002c0 <notmain+0x1a0>)
 800013c:	f7ff ff86 	bl	800004c <PUT32>
 8000140:	2090      	movs	r0, #144	; 0x90
 8000142:	05c0      	lsls	r0, r0, #23
 8000144:	f7ff ff86 	bl	8000054 <GET32>
 8000148:	230f      	movs	r3, #15
 800014a:	0001      	movs	r1, r0
 800014c:	2090      	movs	r0, #144	; 0x90
 800014e:	4399      	bics	r1, r3
 8000150:	3b0a      	subs	r3, #10
 8000152:	4319      	orrs	r1, r3
 8000154:	05c0      	lsls	r0, r0, #23
 8000156:	f7ff ff79 	bl	800004c <PUT32>
 800015a:	485a      	ldr	r0, [pc, #360]	; (80002c4 <notmain+0x1a4>)
 800015c:	f7ff ff7a 	bl	8000054 <GET32>
 8000160:	2303      	movs	r3, #3
 8000162:	0001      	movs	r1, r0
 8000164:	4857      	ldr	r0, [pc, #348]	; (80002c4 <notmain+0x1a4>)
 8000166:	4399      	bics	r1, r3
 8000168:	f7ff ff70 	bl	800004c <PUT32>
 800016c:	2103      	movs	r1, #3
 800016e:	4856      	ldr	r0, [pc, #344]	; (80002c8 <notmain+0x1a8>)
 8000170:	f7ff ff6c 	bl	800004c <PUT32>
 8000174:	2101      	movs	r1, #1
 8000176:	4854      	ldr	r0, [pc, #336]	; (80002c8 <notmain+0x1a8>)
 8000178:	f7ff ff68 	bl	800004c <PUT32>
 800017c:	2102      	movs	r1, #2
 800017e:	4852      	ldr	r0, [pc, #328]	; (80002c8 <notmain+0x1a8>)
 8000180:	f7ff ff64 	bl	800004c <PUT32>
 8000184:	2021      	movs	r0, #33	; 0x21
 8000186:	f7ff ffb9 	bl	80000fc <send_command.constprop.0>
 800018a:	20e0      	movs	r0, #224	; 0xe0
 800018c:	f7ff ffb6 	bl	80000fc <send_command.constprop.0>
 8000190:	2080      	movs	r0, #128	; 0x80
 8000192:	f7ff ffb3 	bl	80000fc <send_command.constprop.0>
 8000196:	2081      	movs	r0, #129	; 0x81
 8000198:	f7ff ffb0 	bl	80000fc <send_command.constprop.0>
 800019c:	234f      	movs	r3, #79	; 0x4f
 800019e:	9301      	str	r3, [sp, #4]
 80001a0:	330c      	adds	r3, #12
 80001a2:	9300      	str	r3, [sp, #0]
 80001a4:	3b55      	subs	r3, #85	; 0x55
 80001a6:	469c      	mov	ip, r3
 80001a8:	3339      	adds	r3, #57	; 0x39
 80001aa:	469b      	mov	fp, r3
 80001ac:	aa06      	add	r2, sp, #24
 80001ae:	2300      	movs	r3, #0
 80001b0:	4690      	mov	r8, r2
 80001b2:	469a      	mov	sl, r3
 80001b4:	330e      	adds	r3, #14
 80001b6:	4443      	add	r3, r8
 80001b8:	4699      	mov	r9, r3
 80001ba:	4b44      	ldr	r3, [pc, #272]	; (80002cc <notmain+0x1ac>)
 80001bc:	2603      	movs	r6, #3
 80001be:	2402      	movs	r4, #2
 80001c0:	2701      	movs	r7, #1
 80001c2:	4698      	mov	r8, r3
 80001c4:	4660      	mov	r0, ip
 80001c6:	2301      	movs	r3, #1
 80001c8:	001a      	movs	r2, r3
 80001ca:	4022      	ands	r2, r4
 80001cc:	9202      	str	r2, [sp, #8]
 80001ce:	0862      	lsrs	r2, r4, #1
 80001d0:	4013      	ands	r3, r2
 80001d2:	ad06      	add	r5, sp, #24
 80001d4:	9303      	str	r3, [sp, #12]
 80001d6:	2200      	movs	r2, #0
 80001d8:	002b      	movs	r3, r5
 80001da:	701a      	strb	r2, [r3, #0]
 80001dc:	3301      	adds	r3, #1
 80001de:	4599      	cmp	r9, r3
 80001e0:	d1fb      	bne.n	80001da <notmain+0xba>
 80001e2:	aa06      	add	r2, sp, #24
 80001e4:	230e      	movs	r3, #14
 80001e6:	4694      	mov	ip, r2
 80001e8:	2104      	movs	r1, #4
 80001ea:	425b      	negs	r3, r3
 80001ec:	4463      	add	r3, ip
 80001ee:	9304      	str	r3, [sp, #16]
 80001f0:	468c      	mov	ip, r1
 80001f2:	0013      	movs	r3, r2
 80001f4:	2240      	movs	r2, #64	; 0x40
 80001f6:	9005      	str	r0, [sp, #20]
 80001f8:	4659      	mov	r1, fp
 80001fa:	420a      	tst	r2, r1
 80001fc:	d003      	beq.n	8000206 <notmain+0xe6>
 80001fe:	2001      	movs	r0, #1
 8000200:	7b59      	ldrb	r1, [r3, #13]
 8000202:	4301      	orrs	r1, r0
 8000204:	7359      	strb	r1, [r3, #13]
 8000206:	9905      	ldr	r1, [sp, #20]
 8000208:	420a      	tst	r2, r1
 800020a:	d003      	beq.n	8000214 <notmain+0xf4>
 800020c:	2002      	movs	r0, #2
 800020e:	7b59      	ldrb	r1, [r3, #13]
 8000210:	4301      	orrs	r1, r0
 8000212:	7359      	strb	r1, [r3, #13]
 8000214:	9900      	ldr	r1, [sp, #0]
 8000216:	420a      	tst	r2, r1
 8000218:	d003      	beq.n	8000222 <notmain+0x102>
 800021a:	4660      	mov	r0, ip
 800021c:	7b59      	ldrb	r1, [r3, #13]
 800021e:	4301      	orrs	r1, r0
 8000220:	7359      	strb	r1, [r3, #13]
 8000222:	9901      	ldr	r1, [sp, #4]
 8000224:	420a      	tst	r2, r1
 8000226:	d003      	beq.n	8000230 <notmain+0x110>
 8000228:	2008      	movs	r0, #8
 800022a:	7b59      	ldrb	r1, [r3, #13]
 800022c:	4301      	orrs	r1, r0
 800022e:	7359      	strb	r1, [r3, #13]
 8000230:	9904      	ldr	r1, [sp, #16]
 8000232:	3b02      	subs	r3, #2
 8000234:	0852      	lsrs	r2, r2, #1
 8000236:	4299      	cmp	r1, r3
 8000238:	d1de      	bne.n	80001f8 <notmain+0xd8>
 800023a:	ab06      	add	r3, sp, #24
 800023c:	7b5b      	ldrb	r3, [r3, #13]
 800023e:	aa06      	add	r2, sp, #24
 8000240:	7852      	ldrb	r2, [r2, #1]
 8000242:	011b      	lsls	r3, r3, #4
 8000244:	4313      	orrs	r3, r2
 8000246:	aa06      	add	r2, sp, #24
 8000248:	7053      	strb	r3, [r2, #1]
 800024a:	0013      	movs	r3, r2
 800024c:	9a02      	ldr	r2, [sp, #8]
 800024e:	709a      	strb	r2, [r3, #2]
 8000250:	9a03      	ldr	r2, [sp, #12]
 8000252:	711a      	strb	r2, [r3, #4]
 8000254:	f7ff ff12 	bl	800007c <i2c_start>
 8000258:	20e0      	movs	r0, #224	; 0xe0
 800025a:	f7ff ff1f 	bl	800009c <i2c_write_byte>
 800025e:	2800      	cmp	r0, #0
 8000260:	d105      	bne.n	800026e <notmain+0x14e>
 8000262:	7828      	ldrb	r0, [r5, #0]
 8000264:	3501      	adds	r5, #1
 8000266:	f7ff ff19 	bl	800009c <i2c_write_byte>
 800026a:	45a9      	cmp	r9, r5
 800026c:	d1f9      	bne.n	8000262 <notmain+0x142>
 800026e:	3601      	adds	r6, #1
 8000270:	f7ff fef6 	bl	8000060 <i2c_stop>
 8000274:	2e09      	cmp	r6, #9
 8000276:	d901      	bls.n	800027c <notmain+0x15c>
 8000278:	2600      	movs	r6, #0
 800027a:	3401      	adds	r4, #1
 800027c:	2c09      	cmp	r4, #9
 800027e:	d901      	bls.n	8000284 <notmain+0x164>
 8000280:	2400      	movs	r4, #0
 8000282:	3701      	adds	r7, #1
 8000284:	2f09      	cmp	r7, #9
 8000286:	d903      	bls.n	8000290 <notmain+0x170>
 8000288:	2301      	movs	r3, #1
 800028a:	469c      	mov	ip, r3
 800028c:	2700      	movs	r7, #0
 800028e:	44e2      	add	sl, ip
 8000290:	4653      	mov	r3, sl
 8000292:	2b09      	cmp	r3, #9
 8000294:	d90f      	bls.n	80002b6 <notmain+0x196>
 8000296:	233f      	movs	r3, #63	; 0x3f
 8000298:	469b      	mov	fp, r3
 800029a:	2300      	movs	r3, #0
 800029c:	469a      	mov	sl, r3
 800029e:	2080      	movs	r0, #128	; 0x80
 80002a0:	0240      	lsls	r0, r0, #9
 80002a2:	f7ff feda 	bl	800005a <ASMDELAY>
 80002a6:	4643      	mov	r3, r8
 80002a8:	5dd8      	ldrb	r0, [r3, r7]
 80002aa:	5d1b      	ldrb	r3, [r3, r4]
 80002ac:	9300      	str	r3, [sp, #0]
 80002ae:	4643      	mov	r3, r8
 80002b0:	5d9b      	ldrb	r3, [r3, r6]
 80002b2:	9301      	str	r3, [sp, #4]
 80002b4:	e787      	b.n	80001c6 <notmain+0xa6>
 80002b6:	4643      	mov	r3, r8
 80002b8:	4652      	mov	r2, sl
 80002ba:	5c9b      	ldrb	r3, [r3, r2]
 80002bc:	469b      	mov	fp, r3
 80002be:	e7ee      	b.n	800029e <notmain+0x17e>
 80002c0:	40021014 	andmi	r1, r2, r4, lsl r0
 80002c4:	48000004 	stmdami	r0, {r2}
 80002c8:	48000018 	stmdami	r0, {r3, r4}
 80002cc:	080002d0 	stmdaeq	r0, {r4, r6, r7, r9}

Disassembly of section .rodata:

080002d0 <numbits>:
 80002d0:	4f5b063f 	svcmi	0x005b063f
 80002d4:	077d6d66 	ldrbeq	r6, [sp, -r6, ror #26]!
 80002d8:	00006f7f 	andeq	r6, r0, pc, ror pc
 80002dc:	00000000 	andeq	r0, r0, r0

Disassembly of section .ARM.attributes:

00000000 <.ARM.attributes>:
   0:	00002c41 	andeq	r2, r0, r1, asr #24
   4:	61656100 	cmnvs	r5, r0, lsl #2
   8:	01006962 	tsteq	r0, r2, ror #18
   c:	00000022 	andeq	r0, r0, r2, lsr #32
  10:	726f4305 	rsbvc	r4, pc, #335544320	; 0x14000000
  14:	2d786574 	cfldr64cs	mvdx6, [r8, #-464]!	; 0xfffffe30
  18:	0600304d 	streq	r3, [r0], -sp, asr #32
  1c:	094d070c 	stmdbeq	sp, {r2, r3, r8, r9, sl}^
  20:	14041201 	strne	r1, [r4], #-513	; 0xfffffdff
  24:	17011501 	strne	r1, [r1, -r1, lsl #10]
  28:	1a011803 	bne	4603c <_start-0x7fb9fc4>
  2c:	Address 0x000000000000002c is out of bounds.


Disassembly of section .comment:

00000000 <.comment>:
   0:	3a434347 	bcc	10d0d24 <_start-0x6f2f2dc>
   4:	35312820 	ldrcc	r2, [r1, #-2080]!	; 0xfffff7e0
   8:	322d393a 	eorcc	r3, sp, #950272	; 0xe8000
   c:	2d393130 	ldfcss	f3, [r9, #-192]!	; 0xffffff40
  10:	302d3471 	eorcc	r3, sp, r1, ror r4
  14:	6e756275 	mrcvs	2, 3, r6, cr5, cr5, {3}
  18:	29317574 	ldmdbcs	r1!, {r2, r4, r5, r6, r8, sl, ip, sp, lr}
  1c:	322e3920 	eorcc	r3, lr, #32, 18	; 0x80000
  20:	3220312e 	eorcc	r3, r0, #-2147483637	; 0x8000000b
  24:	31393130 	teqcc	r9, r0, lsr r1
  28:	20353230 	eorscs	r3, r5, r0, lsr r2
  2c:	6c657228 	sfmvs	f7, 2, [r5], #-160	; 0xffffff60
  30:	65736165 	ldrbvs	r6, [r3, #-357]!	; 0xfffffe9b
  34:	415b2029 	cmpmi	fp, r9, lsr #32
  38:	612f4d52 			; <UNDEFINED> instruction: 0x612f4d52
  3c:	392d6d72 	pushcc	{r1, r4, r5, r6, r8, sl, fp, sp, lr}
  40:	6172622d 	cmnvs	r2, sp, lsr #4
  44:	2068636e 	rsbcs	r6, r8, lr, ror #6
  48:	69766572 	ldmdbvs	r6!, {r1, r4, r5, r6, r8, sl, sp, lr}^
  4c:	6e6f6973 			; <UNDEFINED> instruction: 0x6e6f6973
  50:	37373220 	ldrcc	r3, [r7, -r0, lsr #4]!
  54:	5d393935 			; <UNDEFINED> instruction: 0x5d393935
	...
